target datalayout = "e-m:e-p270:32:32-p271:32:32-p272:64:64-i64:64-i128:128-f80:128-n8:16:32:64-S128"
target triple = "x86_64-pc-linux-gnu"

; Function Attrs: alwaysinline mustprogress nounwind uwtable
define internal noundef i32 @_ZL9shaRotr32jj(i32 noundef %0, i32 noundef %1) #18 {
  %3 = alloca i32, align 4
  %4 = alloca i32, align 4
  store i32 %0, ptr %3, align 4, !tbaa !31
  store i32 %1, ptr %4, align 4, !tbaa !31
  %5 = load i32, ptr %3, align 4, !tbaa !31
  %6 = load i32, ptr %4, align 4, !tbaa !31
  %7 = lshr i32 %5, %6
  %8 = load i32, ptr %3, align 4, !tbaa !31
  %9 = load i32, ptr %4, align 4, !tbaa !31
  %10 = sub i32 32, %9
  %11 = shl i32 %8, %10
  %12 = or i32 %7, %11
  ret i32 %12
}

; Function Attrs: alwaysinline mustprogress uwtable
define internal void @_ZL11sha256BlockPjPKj(ptr noundef %0, ptr noundef %1) #14 {
  %3 = alloca ptr, align 8
  %4 = alloca ptr, align 8
  %5 = alloca [8 x i32], align 16
  %6 = alloca ptr, align 8
  %7 = alloca i32, align 4
  %8 = alloca [16 x i32], align 16
  %9 = alloca i32, align 4
  %10 = alloca i32, align 4
  %11 = alloca i32, align 4
  %12 = alloca i32, align 4
  %13 = alloca i32, align 4
  %14 = alloca i32, align 4
  %15 = alloca i32, align 4
  %16 = alloca i32, align 4
  %17 = alloca i32, align 4
  %18 = alloca i32, align 4
  %19 = alloca i32, align 4
  %20 = alloca i32, align 4
  store ptr %0, ptr %3, align 8, !tbaa !67
  store ptr %1, ptr %4, align 8, !tbaa !67
  call void @llvm.lifetime.start.p0(i64 32, ptr %5) #3
  call void @llvm.lifetime.start.p0(i64 8, ptr %6) #3
  %21 = load ptr, ptr %4, align 8, !tbaa !67
  store ptr %21, ptr %6, align 8, !tbaa !67
  call void @llvm.lifetime.start.p0(i64 4, ptr %7) #3
  store i32 0, ptr %7, align 4, !tbaa !31
  br label %22

22:                                               ; preds = %35, %2
  %23 = load i32, ptr %7, align 4, !tbaa !31
  %24 = icmp ult i32 %23, 8
  br i1 %24, label %26, label %25

25:                                               ; preds = %22
  call void @llvm.lifetime.end.p0(i64 4, ptr %7) #3
  br label %38

26:                                               ; preds = %22
  %27 = load ptr, ptr %3, align 8, !tbaa !67
  %28 = load i32, ptr %7, align 4, !tbaa !31
  %29 = zext i32 %28 to i64
  %30 = getelementptr inbounds nuw i32, ptr %27, i64 %29
  %31 = load i32, ptr %30, align 4, !tbaa !31
  %32 = load i32, ptr %7, align 4, !tbaa !31
  %33 = zext i32 %32 to i64
  %34 = getelementptr inbounds nuw [8 x i32], ptr %5, i64 0, i64 %33
  store i32 %31, ptr %34, align 4, !tbaa !31
  br label %35

35:                                               ; preds = %26
  %36 = load i32, ptr %7, align 4, !tbaa !31
  %37 = add i32 %36, 1
  store i32 %37, ptr %7, align 4, !tbaa !31
  br label %22, !llvm.loop !69

38:                                               ; preds = %25
  call void @llvm.lifetime.start.p0(i64 64, ptr %8) #3
  call void @llvm.memset.p0.i64(ptr align 16 %8, i8 0, i64 64, i1 false)
  call void @llvm.lifetime.start.p0(i64 4, ptr %9) #3
  store i32 0, ptr %9, align 4, !tbaa !31
  br label %39

39:                                               ; preds = %228, %38
  %40 = load i32, ptr %9, align 4, !tbaa !31
  %41 = icmp ult i32 %40, 4
  br i1 %41, label %43, label %42

42:                                               ; preds = %39
  store i32 5, ptr %10, align 4
  call void @llvm.lifetime.end.p0(i64 4, ptr %9) #3
  br label %231

43:                                               ; preds = %39
  call void @llvm.lifetime.start.p0(i64 4, ptr %11) #3
  store i32 0, ptr %11, align 4, !tbaa !31
  br label %44

44:                                               ; preds = %224, %43
  %45 = load i32, ptr %11, align 4, !tbaa !31
  %46 = icmp ult i32 %45, 16
  br i1 %46, label %48, label %47

47:                                               ; preds = %44
  store i32 8, ptr %10, align 4
  call void @llvm.lifetime.end.p0(i64 4, ptr %11) #3
  br label %227

48:                                               ; preds = %44
  %49 = load i32, ptr %9, align 4, !tbaa !31
  %50 = icmp eq i32 %49, 0
  br i1 %50, label %51, label %58

51:                                               ; preds = %48
  %52 = load ptr, ptr %6, align 8, !tbaa !67
  %53 = getelementptr inbounds nuw i32, ptr %52, i32 1
  store ptr %53, ptr %6, align 8, !tbaa !67
  %54 = load i32, ptr %52, align 4, !tbaa !31
  %55 = load i32, ptr %11, align 4, !tbaa !31
  %56 = zext i32 %55 to i64
  %57 = getelementptr inbounds nuw [16 x i32], ptr %8, i64 0, i64 %56
  store i32 %54, ptr %57, align 4, !tbaa !31
  br label %123

58:                                               ; preds = %48
  call void @llvm.lifetime.start.p0(i64 4, ptr %12) #3
  %59 = load i32, ptr %11, align 4, !tbaa !31
  %60 = add i32 %59, 1
  %61 = and i32 %60, 15
  %62 = zext i32 %61 to i64
  %63 = getelementptr inbounds nuw [16 x i32], ptr %8, i64 0, i64 %62
  %64 = load i32, ptr %63, align 4, !tbaa !31
  %65 = call noundef i32 @_ZL9shaRotr32jj(i32 noundef %64, i32 noundef 7)
  %66 = load i32, ptr %11, align 4, !tbaa !31
  %67 = add i32 %66, 1
  %68 = and i32 %67, 15
  %69 = zext i32 %68 to i64
  %70 = getelementptr inbounds nuw [16 x i32], ptr %8, i64 0, i64 %69
  %71 = load i32, ptr %70, align 4, !tbaa !31
  %72 = call noundef i32 @_ZL9shaRotr32jj(i32 noundef %71, i32 noundef 18)
  %73 = xor i32 %65, %72
  %74 = load i32, ptr %11, align 4, !tbaa !31
  %75 = add i32 %74, 1
  %76 = and i32 %75, 15
  %77 = zext i32 %76 to i64
  %78 = getelementptr inbounds nuw [16 x i32], ptr %8, i64 0, i64 %77
  %79 = load i32, ptr %78, align 4, !tbaa !31
  %80 = lshr i32 %79, 3
  %81 = xor i32 %73, %80
  store i32 %81, ptr %12, align 4, !tbaa !31
  call void @llvm.lifetime.start.p0(i64 4, ptr %13) #3
  %82 = load i32, ptr %11, align 4, !tbaa !31
  %83 = add i32 %82, 14
  %84 = and i32 %83, 15
  %85 = zext i32 %84 to i64
  %86 = getelementptr inbounds nuw [16 x i32], ptr %8, i64 0, i64 %85
  %87 = load i32, ptr %86, align 4, !tbaa !31
  %88 = call noundef i32 @_ZL9shaRotr32jj(i32 noundef %87, i32 noundef 17)
  %89 = load i32, ptr %11, align 4, !tbaa !31
  %90 = add i32 %89, 14
  %91 = and i32 %90, 15
  %92 = zext i32 %91 to i64
  %93 = getelementptr inbounds nuw [16 x i32], ptr %8, i64 0, i64 %92
  %94 = load i32, ptr %93, align 4, !tbaa !31
  %95 = call noundef i32 @_ZL9shaRotr32jj(i32 noundef %94, i32 noundef 19)
  %96 = xor i32 %88, %95
  %97 = load i32, ptr %11, align 4, !tbaa !31
  %98 = add i32 %97, 14
  %99 = and i32 %98, 15
  %100 = zext i32 %99 to i64
  %101 = getelementptr inbounds nuw [16 x i32], ptr %8, i64 0, i64 %100
  %102 = load i32, ptr %101, align 4, !tbaa !31
  %103 = lshr i32 %102, 10
  %104 = xor i32 %96, %103
  store i32 %104, ptr %13, align 4, !tbaa !31
  %105 = load i32, ptr %11, align 4, !tbaa !31
  %106 = zext i32 %105 to i64
  %107 = getelementptr inbounds nuw [16 x i32], ptr %8, i64 0, i64 %106
  %108 = load i32, ptr %107, align 4, !tbaa !31
  %109 = load i32, ptr %12, align 4, !tbaa !31
  %110 = add i32 %108, %109
  %111 = load i32, ptr %11, align 4, !tbaa !31
  %112 = add i32 %111, 9
  %113 = and i32 %112, 15
  %114 = zext i32 %113 to i64
  %115 = getelementptr inbounds nuw [16 x i32], ptr %8, i64 0, i64 %114
  %116 = load i32, ptr %115, align 4, !tbaa !31
  %117 = add i32 %110, %116
  %118 = load i32, ptr %13, align 4, !tbaa !31
  %119 = add i32 %117, %118
  %120 = load i32, ptr %11, align 4, !tbaa !31
  %121 = zext i32 %120 to i64
  %122 = getelementptr inbounds nuw [16 x i32], ptr %8, i64 0, i64 %121
  store i32 %119, ptr %122, align 4, !tbaa !31
  call void @llvm.lifetime.end.p0(i64 4, ptr %13) #3
  call void @llvm.lifetime.end.p0(i64 4, ptr %12) #3
  br label %123

123:                                              ; preds = %58, %51
  call void @llvm.lifetime.start.p0(i64 4, ptr %14) #3
  %124 = getelementptr inbounds [8 x i32], ptr %5, i64 0, i64 4
  %125 = load i32, ptr %124, align 16, !tbaa !31
  %126 = call noundef i32 @_ZL9shaRotr32jj(i32 noundef %125, i32 noundef 6)
  %127 = getelementptr inbounds [8 x i32], ptr %5, i64 0, i64 4
  %128 = load i32, ptr %127, align 16, !tbaa !31
  %129 = call noundef i32 @_ZL9shaRotr32jj(i32 noundef %128, i32 noundef 11)
  %130 = xor i32 %126, %129
  %131 = getelementptr inbounds [8 x i32], ptr %5, i64 0, i64 4
  %132 = load i32, ptr %131, align 16, !tbaa !31
  %133 = call noundef i32 @_ZL9shaRotr32jj(i32 noundef %132, i32 noundef 25)
  %134 = xor i32 %130, %133
  store i32 %134, ptr %14, align 4, !tbaa !31
  call void @llvm.lifetime.start.p0(i64 4, ptr %15) #3
  %135 = getelementptr inbounds [8 x i32], ptr %5, i64 0, i64 4
  %136 = load i32, ptr %135, align 16, !tbaa !31
  %137 = getelementptr inbounds [8 x i32], ptr %5, i64 0, i64 5
  %138 = load i32, ptr %137, align 4, !tbaa !31
  %139 = and i32 %136, %138
  %140 = getelementptr inbounds [8 x i32], ptr %5, i64 0, i64 4
  %141 = load i32, ptr %140, align 16, !tbaa !31
  %142 = xor i32 %141, -1
  %143 = getelementptr inbounds [8 x i32], ptr %5, i64 0, i64 6
  %144 = load i32, ptr %143, align 8, !tbaa !31
  %145 = and i32 %142, %144
  %146 = xor i32 %139, %145
  store i32 %146, ptr %15, align 4, !tbaa !31
  call void @llvm.lifetime.start.p0(i64 4, ptr %16) #3
  %147 = getelementptr inbounds [8 x i32], ptr %5, i64 0, i64 7
  %148 = load i32, ptr %147, align 4, !tbaa !31
  %149 = load i32, ptr %14, align 4, !tbaa !31
  %150 = add i32 %148, %149
  %151 = load i32, ptr %15, align 4, !tbaa !31
  %152 = add i32 %150, %151
  %153 = load i32, ptr %9, align 4, !tbaa !31
  %154 = shl i32 %153, 4
  %155 = load i32, ptr %11, align 4, !tbaa !31
  %156 = or i32 %154, %155
  %157 = zext i32 %156 to i64
  %158 = getelementptr inbounds nuw [64 x i32], ptr @_ZL7sha256K, i64 0, i64 %157
  %159 = load i32, ptr %158, align 4, !tbaa !31
  %160 = add i32 %152, %159
  %161 = load i32, ptr %11, align 4, !tbaa !31
  %162 = zext i32 %161 to i64
  %163 = getelementptr inbounds nuw [16 x i32], ptr %8, i64 0, i64 %162
  %164 = load i32, ptr %163, align 4, !tbaa !31
  %165 = add i32 %160, %164
  store i32 %165, ptr %16, align 4, !tbaa !31
  call void @llvm.lifetime.start.p0(i64 4, ptr %17) #3
  %166 = getelementptr inbounds [8 x i32], ptr %5, i64 0, i64 0
  %167 = load i32, ptr %166, align 16, !tbaa !31
  %168 = call noundef i32 @_ZL9shaRotr32jj(i32 noundef %167, i32 noundef 2)
  %169 = getelementptr inbounds [8 x i32], ptr %5, i64 0, i64 0
  %170 = load i32, ptr %169, align 16, !tbaa !31
  %171 = call noundef i32 @_ZL9shaRotr32jj(i32 noundef %170, i32 noundef 13)
  %172 = xor i32 %168, %171
  %173 = getelementptr inbounds [8 x i32], ptr %5, i64 0, i64 0
  %174 = load i32, ptr %173, align 16, !tbaa !31
  %175 = call noundef i32 @_ZL9shaRotr32jj(i32 noundef %174, i32 noundef 22)
  %176 = xor i32 %172, %175
  store i32 %176, ptr %17, align 4, !tbaa !31
  call void @llvm.lifetime.start.p0(i64 4, ptr %18) #3
  %177 = getelementptr inbounds [8 x i32], ptr %5, i64 0, i64 0
  %178 = load i32, ptr %177, align 16, !tbaa !31
  %179 = getelementptr inbounds [8 x i32], ptr %5, i64 0, i64 1
  %180 = load i32, ptr %179, align 4, !tbaa !31
  %181 = and i32 %178, %180
  %182 = getelementptr inbounds [8 x i32], ptr %5, i64 0, i64 0
  %183 = load i32, ptr %182, align 16, !tbaa !31
  %184 = getelementptr inbounds [8 x i32], ptr %5, i64 0, i64 2
  %185 = load i32, ptr %184, align 8, !tbaa !31
  %186 = and i32 %183, %185
  %187 = xor i32 %181, %186
  %188 = getelementptr inbounds [8 x i32], ptr %5, i64 0, i64 1
  %189 = load i32, ptr %188, align 4, !tbaa !31
  %190 = getelementptr inbounds [8 x i32], ptr %5, i64 0, i64 2
  %191 = load i32, ptr %190, align 8, !tbaa !31
  %192 = and i32 %189, %191
  %193 = xor i32 %187, %192
  store i32 %193, ptr %18, align 4, !tbaa !31
  call void @llvm.lifetime.start.p0(i64 4, ptr %19) #3
  %194 = load i32, ptr %17, align 4, !tbaa !31
  %195 = load i32, ptr %18, align 4, !tbaa !31
  %196 = add i32 %194, %195
  store i32 %196, ptr %19, align 4, !tbaa !31
  %197 = getelementptr inbounds [8 x i32], ptr %5, i64 0, i64 6
  %198 = load i32, ptr %197, align 8, !tbaa !31
  %199 = getelementptr inbounds [8 x i32], ptr %5, i64 0, i64 7
  store i32 %198, ptr %199, align 4, !tbaa !31
  %200 = getelementptr inbounds [8 x i32], ptr %5, i64 0, i64 5
  %201 = load i32, ptr %200, align 4, !tbaa !31
  %202 = getelementptr inbounds [8 x i32], ptr %5, i64 0, i64 6
  store i32 %201, ptr %202, align 8, !tbaa !31
  %203 = getelementptr inbounds [8 x i32], ptr %5, i64 0, i64 4
  %204 = load i32, ptr %203, align 16, !tbaa !31
  %205 = getelementptr inbounds [8 x i32], ptr %5, i64 0, i64 5
  store i32 %204, ptr %205, align 4, !tbaa !31
  %206 = getelementptr inbounds [8 x i32], ptr %5, i64 0, i64 3
  %207 = load i32, ptr %206, align 4, !tbaa !31
  %208 = load i32, ptr %16, align 4, !tbaa !31
  %209 = add i32 %207, %208
  %210 = getelementptr inbounds [8 x i32], ptr %5, i64 0, i64 4
  store i32 %209, ptr %210, align 16, !tbaa !31
  %211 = getelementptr inbounds [8 x i32], ptr %5, i64 0, i64 2
  %212 = load i32, ptr %211, align 8, !tbaa !31
  %213 = getelementptr inbounds [8 x i32], ptr %5, i64 0, i64 3
  store i32 %212, ptr %213, align 4, !tbaa !31
  %214 = getelementptr inbounds [8 x i32], ptr %5, i64 0, i64 1
  %215 = load i32, ptr %214, align 4, !tbaa !31
  %216 = getelementptr inbounds [8 x i32], ptr %5, i64 0, i64 2
  store i32 %215, ptr %216, align 8, !tbaa !31
  %217 = getelementptr inbounds [8 x i32], ptr %5, i64 0, i64 0
  %218 = load i32, ptr %217, align 16, !tbaa !31
  %219 = getelementptr inbounds [8 x i32], ptr %5, i64 0, i64 1
  store i32 %218, ptr %219, align 4, !tbaa !31
  %220 = load i32, ptr %16, align 4, !tbaa !31
  %221 = load i32, ptr %19, align 4, !tbaa !31
  %222 = add i32 %220, %221
  %223 = getelementptr inbounds [8 x i32], ptr %5, i64 0, i64 0
  store i32 %222, ptr %223, align 16, !tbaa !31
  call void @llvm.lifetime.end.p0(i64 4, ptr %19) #3
  call void @llvm.lifetime.end.p0(i64 4, ptr %18) #3
  call void @llvm.lifetime.end.p0(i64 4, ptr %17) #3
  call void @llvm.lifetime.end.p0(i64 4, ptr %16) #3
  call void @llvm.lifetime.end.p0(i64 4, ptr %15) #3
  call void @llvm.lifetime.end.p0(i64 4, ptr %14) #3
  br label %224

224:                                              ; preds = %123
  %225 = load i32, ptr %11, align 4, !tbaa !31
  %226 = add i32 %225, 1
  store i32 %226, ptr %11, align 4, !tbaa !31
  br label %44, !llvm.loop !70

227:                                              ; preds = %47
  br label %228

228:                                              ; preds = %227
  %229 = load i32, ptr %9, align 4, !tbaa !31
  %230 = add i32 %229, 1
  store i32 %230, ptr %9, align 4, !tbaa !31
  br label %39, !llvm.loop !71

231:                                              ; preds = %42
  call void @llvm.lifetime.start.p0(i64 4, ptr %20) #3
  store i32 0, ptr %20, align 4, !tbaa !31
  br label %232

232:                                              ; preds = %247, %231
  %233 = load i32, ptr %20, align 4, !tbaa !31
  %234 = icmp ult i32 %233, 8
  br i1 %234, label %236, label %235

235:                                              ; preds = %232
  store i32 11, ptr %10, align 4
  call void @llvm.lifetime.end.p0(i64 4, ptr %20) #3
  br label %250

236:                                              ; preds = %232
  %237 = load i32, ptr %20, align 4, !tbaa !31
  %238 = zext i32 %237 to i64
  %239 = getelementptr inbounds nuw [8 x i32], ptr %5, i64 0, i64 %238
  %240 = load i32, ptr %239, align 4, !tbaa !31
  %241 = load ptr, ptr %3, align 8, !tbaa !67
  %242 = load i32, ptr %20, align 4, !tbaa !31
  %243 = zext i32 %242 to i64
  %244 = getelementptr inbounds nuw i32, ptr %241, i64 %243
  %245 = load i32, ptr %244, align 4, !tbaa !31
  %246 = add i32 %245, %240
  store i32 %246, ptr %244, align 4, !tbaa !31
  br label %247

247:                                              ; preds = %236
  %248 = load i32, ptr %20, align 4, !tbaa !31
  %249 = add i32 %248, 1
  store i32 %249, ptr %20, align 4, !tbaa !31
  br label %232, !llvm.loop !72

250:                                              ; preds = %235
  call void @llvm.lifetime.end.p0(i64 64, ptr %8) #3
  call void @llvm.lifetime.end.p0(i64 8, ptr %6) #3
  call void @llvm.lifetime.end.p0(i64 32, ptr %5) #3
  ret void
}