; Function Attrs: alwaysinline mustprogress nofree norecurse nosync nounwind memory(argmem: readwrite) uwtable
define internal void @_ZL11sha256BlockPjPKj(ptr noundef captures(none) %0, ptr noundef readonly captures(none) %1) #17 {
  %3 = alloca [8 x i32], align 16
  %4 = alloca [16 x i32], align 16
  call void @llvm.lifetime.start.p0(i64 32, ptr nonnull %3) #31
  call void @llvm.memcpy.p0.p0.i64(ptr noundef nonnull align 16 dereferenceable(32) %3, ptr noundef nonnull align 4 dereferenceable(32) %0, i64 32, i1 false), !tbaa !57
  call void @llvm.lifetime.start.p0(i64 64, ptr nonnull %4) #31
  call void @llvm.memset.p0.i64(ptr noundef nonnull align 16 dereferenceable(64) %4, i8 0, i64 64, i1 false)
  %5 = getelementptr inbounds nuw i8, ptr %3, i64 16
  %6 = getelementptr inbounds nuw i8, ptr %3, i64 20
  %7 = getelementptr inbounds nuw i8, ptr %3, i64 24
  %8 = getelementptr inbounds nuw i8, ptr %3, i64 28
  %9 = getelementptr inbounds nuw i8, ptr %3, i64 4
  %10 = getelementptr inbounds nuw i8, ptr %3, i64 8
  %11 = getelementptr inbounds nuw i8, ptr %3, i64 12
  %.promoted60 = load i32, ptr %8, align 4, !tbaa !57
  %.promoted63 = load i32, ptr %7, align 8, !tbaa !57
  %.promoted66 = load i32, ptr %6, align 4, !tbaa !57
  %.promoted69 = load i32, ptr %5, align 16, !tbaa !57
  %.promoted = load i32, ptr %11, align 4, !tbaa !57
  %.promoted74 = load i32, ptr %10, align 8, !tbaa !57
  %.promoted77 = load i32, ptr %9, align 4, !tbaa !57
  %.promoted80 = load i32, ptr %3, align 16, !tbaa !57
  br label %.preheader42

.preheader42:                                     ; preds = %2, %.split.us
  %indvars.iv124 = phi i64 [ 0, %2 ], [ %indvars.iv.next125, %.split.us ]
  %.038100 = phi ptr [ %1, %2 ], [ %.us-phi, %.split.us ]
  %.lcssa6198 = phi i32 [ %.promoted60, %2 ], [ %.lcssa62, %.split.us ]
  %.lcssa536497 = phi i32 [ %.promoted63, %2 ], [ %.lcssa5365, %.split.us ]
  %.lcssa546796 = phi i32 [ %.promoted66, %2 ], [ %.lcssa5468, %.split.us ]
  %.lcssa557095 = phi i32 [ %.promoted69, %2 ], [ %.lcssa5571, %.split.us ]
  %.lcssa567294 = phi i32 [ %.promoted, %2 ], [ %.lcssa5673, %.split.us ]
  %.lcssa577593 = phi i32 [ %.promoted74, %2 ], [ %.lcssa5776, %.split.us ]
  %.lcssa587892 = phi i32 [ %.promoted77, %2 ], [ %.lcssa5879, %.split.us ]
  %.lcssa598191 = phi i32 [ %.promoted80, %2 ], [ %.lcssa5982, %.split.us ]
  %12 = icmp eq i64 %indvars.iv124, 0
  %13 = shl nuw nsw i64 %indvars.iv124, 4
  br i1 %12, label %.preheader42.split.us, label %.preheader42.split

.preheader42.split.us:                            ; preds = %.preheader42, %.preheader42.split.us
  %indvars.iv120 = phi i64 [ %indvars.iv.next121, %.preheader42.split.us ], [ 0, %.preheader42 ]
  %.152.us = phi ptr [ %22, %.preheader42.split.us ], [ %.038100, %.preheader42 ]
  %14 = phi i32 [ %49, %.preheader42.split.us ], [ %.lcssa557095, %.preheader42 ]
  %15 = phi i32 [ %14, %.preheader42.split.us ], [ %.lcssa546796, %.preheader42 ]
  %16 = phi i32 [ %15, %.preheader42.split.us ], [ %.lcssa536497, %.preheader42 ]
  %17 = phi i32 [ %16, %.preheader42.split.us ], [ %.lcssa6198, %.preheader42 ]
  %18 = phi i32 [ %51, %.preheader42.split.us ], [ %.lcssa598191, %.preheader42 ]
  %19 = phi i32 [ %18, %.preheader42.split.us ], [ %.lcssa587892, %.preheader42 ]
  %20 = phi i32 [ %19, %.preheader42.split.us ], [ %.lcssa577593, %.preheader42 ]
  %21 = phi i32 [ %20, %.preheader42.split.us ], [ %.lcssa567294, %.preheader42 ]
  %22 = getelementptr inbounds nuw i8, ptr %.152.us, i64 4
  %23 = load i32, ptr %.152.us, align 4, !tbaa !57
  %24 = getelementptr inbounds nuw [16 x i32], ptr %4, i64 0, i64 %indvars.iv120
  store i32 %23, ptr %24, align 4, !tbaa !57
  %25 = tail call i32 @llvm.fshl.i32(i32 %14, i32 %14, i32 26)
  %26 = tail call i32 @llvm.fshl.i32(i32 %14, i32 %14, i32 21)
  %27 = xor i32 %25, %26
  %28 = tail call i32 @llvm.fshl.i32(i32 %14, i32 %14, i32 7)
  %29 = xor i32 %27, %28
  %30 = and i32 %15, %14
  %31 = xor i32 %14, -1
  %32 = and i32 %16, %31
  %33 = getelementptr inbounds nuw [64 x i32], ptr @_ZL7sha256K, i64 0, i64 %indvars.iv120
  %34 = load i32, ptr %33, align 4, !tbaa !57
  %35 = add i32 %29, %30
  %36 = add i32 %35, %17
  %37 = add i32 %36, %32
  %38 = add i32 %37, %34
  %39 = add i32 %38, %23
  %40 = tail call i32 @llvm.fshl.i32(i32 %18, i32 %18, i32 30)
  %41 = tail call i32 @llvm.fshl.i32(i32 %18, i32 %18, i32 19)
  %42 = xor i32 %40, %41
  %43 = tail call i32 @llvm.fshl.i32(i32 %18, i32 %18, i32 10)
  %44 = xor i32 %42, %43
  %45 = xor i32 %20, %19
  %46 = and i32 %45, %18
  %47 = and i32 %20, %19
  %48 = xor i32 %46, %47
  store i32 %16, ptr %8, align 4, !tbaa !57
  store i32 %15, ptr %7, align 8, !tbaa !57
  store i32 %14, ptr %6, align 4, !tbaa !57
  %49 = add i32 %21, %39
  store i32 %49, ptr %5, align 16, !tbaa !57
  store i32 %20, ptr %11, align 4, !tbaa !57
  store i32 %19, ptr %10, align 8, !tbaa !57
  store i32 %18, ptr %9, align 4, !tbaa !57
  %50 = add i32 %44, %39
  %51 = add i32 %50, %48
  store i32 %51, ptr %3, align 16, !tbaa !57
  %indvars.iv.next121 = add nuw nsw i64 %indvars.iv120, 1
  %exitcond123.not = icmp eq i64 %indvars.iv.next121, 16
  br i1 %exitcond123.not, label %.split.us, label %.preheader42.split.us, !llvm.loop !58

.split:                                           ; preds = %.preheader42.split
  store i32 %54, ptr %8, align 4, !tbaa !57
  store i32 %53, ptr %7, align 8, !tbaa !57
  store i32 %52, ptr %6, align 4, !tbaa !57
  store i32 %111, ptr %5, align 16, !tbaa !57
  store i32 %58, ptr %11, align 4, !tbaa !57
  store i32 %57, ptr %10, align 8, !tbaa !57
  store i32 %56, ptr %9, align 4, !tbaa !57
  store i32 %113, ptr %3, align 16, !tbaa !57
  br label %.split.us

.split.us:                                        ; preds = %.preheader42.split.us, %.split
  %.lcssa5982 = phi i32 [ %113, %.split ], [ %51, %.preheader42.split.us ]
  %.lcssa5879 = phi i32 [ %56, %.split ], [ %18, %.preheader42.split.us ]
  %.lcssa5776 = phi i32 [ %57, %.split ], [ %19, %.preheader42.split.us ]
  %.lcssa5673 = phi i32 [ %58, %.split ], [ %20, %.preheader42.split.us ]
  %.lcssa5571 = phi i32 [ %111, %.split ], [ %49, %.preheader42.split.us ]
  %.lcssa5468 = phi i32 [ %52, %.split ], [ %14, %.preheader42.split.us ]
  %.lcssa5365 = phi i32 [ %53, %.split ], [ %15, %.preheader42.split.us ]
  %.lcssa62 = phi i32 [ %54, %.split ], [ %16, %.preheader42.split.us ]
  %.us-phi = phi ptr [ %.038100, %.split ], [ %22, %.preheader42.split.us ]
  %indvars.iv.next125 = add nuw nsw i64 %indvars.iv124, 1
  %exitcond127.not = icmp eq i64 %indvars.iv.next125, 4
  br i1 %exitcond127.not, label %.preheader, label %.preheader42, !llvm.loop !59

.preheader42.split:                               ; preds = %.preheader42, %.preheader42.split
  %indvars.iv = phi i64 [ %indvars.iv.next, %.preheader42.split ], [ 0, %.preheader42 ]
  %52 = phi i32 [ %111, %.preheader42.split ], [ %.lcssa557095, %.preheader42 ]
  %53 = phi i32 [ %52, %.preheader42.split ], [ %.lcssa546796, %.preheader42 ]
  %54 = phi i32 [ %53, %.preheader42.split ], [ %.lcssa536497, %.preheader42 ]
  %55 = phi i32 [ %54, %.preheader42.split ], [ %.lcssa6198, %.preheader42 ]
  %56 = phi i32 [ %113, %.preheader42.split ], [ %.lcssa598191, %.preheader42 ]
  %57 = phi i32 [ %56, %.preheader42.split ], [ %.lcssa587892, %.preheader42 ]
  %58 = phi i32 [ %57, %.preheader42.split ], [ %.lcssa577593, %.preheader42 ]
  %59 = phi i32 [ %58, %.preheader42.split ], [ %.lcssa567294, %.preheader42 ]
  %indvars.iv.next = add nuw nsw i64 %indvars.iv, 1
  %60 = and i64 %indvars.iv.next, 15
  %61 = getelementptr inbounds nuw [16 x i32], ptr %4, i64 0, i64 %60
  %62 = load i32, ptr %61, align 4, !tbaa !57
  %63 = tail call i32 @llvm.fshl.i32(i32 %62, i32 %62, i32 25)
  %64 = tail call i32 @llvm.fshl.i32(i32 %62, i32 %62, i32 14)
  %65 = xor i32 %63, %64
  %66 = lshr i32 %62, 3
  %67 = xor i32 %65, %66
  %68 = add nuw i64 %indvars.iv, 14
  %69 = and i64 %68, 15
  %70 = getelementptr inbounds nuw [16 x i32], ptr %4, i64 0, i64 %69
  %71 = load i32, ptr %70, align 4, !tbaa !57
  %72 = tail call i32 @llvm.fshl.i32(i32 %71, i32 %71, i32 15)
  %73 = tail call i32 @llvm.fshl.i32(i32 %71, i32 %71, i32 13)
  %74 = xor i32 %72, %73
  %75 = lshr i32 %71, 10
  %76 = xor i32 %74, %75
  %77 = getelementptr inbounds nuw [16 x i32], ptr %4, i64 0, i64 %indvars.iv
  %78 = load i32, ptr %77, align 4, !tbaa !57
  %79 = add i32 %67, %78
  %80 = add nuw i64 %indvars.iv, 9
  %81 = and i64 %80, 15
  %82 = getelementptr inbounds nuw [16 x i32], ptr %4, i64 0, i64 %81
  %83 = load i32, ptr %82, align 4, !tbaa !57
  %84 = add i32 %79, %83
  %85 = add i32 %84, %76
  store i32 %85, ptr %77, align 4, !tbaa !57
  %86 = tail call i32 @llvm.fshl.i32(i32 %52, i32 %52, i32 26)
  %87 = tail call i32 @llvm.fshl.i32(i32 %52, i32 %52, i32 21)
  %88 = xor i32 %86, %87
  %89 = tail call i32 @llvm.fshl.i32(i32 %52, i32 %52, i32 7)
  %90 = xor i32 %88, %89
  %91 = and i32 %53, %52
  %92 = xor i32 %52, -1
  %93 = and i32 %54, %92
  %94 = add nuw nsw i64 %indvars.iv, %13
  %95 = getelementptr inbounds nuw [64 x i32], ptr @_ZL7sha256K, i64 0, i64 %94
  %96 = load i32, ptr %95, align 4, !tbaa !57
  %97 = add i32 %90, %91
  %98 = add i32 %97, %55
  %99 = add i32 %98, %93
  %100 = add i32 %99, %96
  %101 = add i32 %100, %85
  %102 = tail call i32 @llvm.fshl.i32(i32 %56, i32 %56, i32 30)
  %103 = tail call i32 @llvm.fshl.i32(i32 %56, i32 %56, i32 19)
  %104 = xor i32 %102, %103
  %105 = tail call i32 @llvm.fshl.i32(i32 %56, i32 %56, i32 10)
  %106 = xor i32 %104, %105
  %107 = xor i32 %58, %57
  %108 = and i32 %107, %56
  %109 = and i32 %58, %57
  %110 = xor i32 %108, %109
  %111 = add i32 %59, %101
  %112 = add i32 %106, %101
  %113 = add i32 %112, %110
  %exitcond.not = icmp eq i64 %indvars.iv.next, 16
  br i1 %exitcond.not, label %.split, label %.preheader42.split, !llvm.loop !58

114:                                              ; preds = %.preheader
  call void @llvm.lifetime.end.p0(i64 64, ptr nonnull %4) #31
  call void @llvm.lifetime.end.p0(i64 32, ptr nonnull %3) #31
  ret void

.preheader:                                       ; preds = %.split.us, %.preheader
  %indvars.iv128 = phi i64 [ %indvars.iv.next129, %.preheader ], [ 0, %.split.us ]
  %115 = getelementptr inbounds nuw [8 x i32], ptr %3, i64 0, i64 %indvars.iv128
  %116 = load i32, ptr %115, align 4, !tbaa !57
  %117 = getelementptr inbounds nuw i32, ptr %0, i64 %indvars.iv128
  %118 = load i32, ptr %117, align 4, !tbaa !57
  %119 = add i32 %118, %116
  store i32 %119, ptr %117, align 4, !tbaa !57
  %indvars.iv.next129 = add nuw nsw i64 %indvars.iv128, 1
  %exitcond131.not = icmp eq i64 %indvars.iv.next129, 8
  br i1 %exitcond131.not, label %114, label %.preheader, !llvm.loop !60
}